target datalayout = "e-m:e-p270:32:32-p271:32:32-p272:64:64-i64:64-i128:128-f80:128-n8:16:32:64-S128"
target triple = "x86_64-pc-linux-gnu"

%struct._value_string_ext = type { ptr, i32, i32, ptr, ptr }
%struct.expert_field = type { i32, i32 }

@hf_r3_commandlength = internal global i32 0, align 4
@hf_r3_command = internal global i32 0, align 4
@hf_r3_upstreamfielderror = internal global i32 0, align 4
@hf_r3_expireon_year = internal global i32 0, align 4
@hf_r3_expireon_month = internal global i32 0, align 4
@hf_r3_expireon_day = internal global i32 0, align 4
@hf_r3_adduserparamtype = internal global i32 0, align 4
@hf_r3_adduserparamtypelength = internal global i32 0, align 4
@hf_r3_adduserparamtypetype = internal global i32 0, align 4
@r3_adduserparamtypenames_ext = internal global %struct._value_string_ext { ptr @_try_val_to_str_ext_init, i32 0, i32 14, ptr @r3_adduserparamtypenames, ptr @.str.1826 }, align 8
@hf_r3_adduserparamtypearray = internal global [14 x i32] zeroinitializer, align 16
@ett_r3timezone = internal global i32 0, align 4
@ett_r3expireon = internal global i32 0, align 4
@ett_r3manageuser = internal global i32 0, align 4
@ei_r3_malformed_length = internal global %struct.expert_field zeroinitializer, align 4
@.str.1866 = private unnamed_addr constant [16 x i8] c"[Unknown Field]\00", align 1
@.str.1868 = private unnamed_addr constant [60 x i8] c"Malformed length value -- all fields are at least 2 octets.\00", align 1
@.str.1873 = private unnamed_addr constant [48 x i8] c"Malformed expiration field -- expected 3 octets\00", align 1
@.str.1874 = private unnamed_addr constant [32 x i8] c"Expire YY/MM/DD: %02u/%02u/%02u\00", align 1
@.str.1875 = private unnamed_addr constant [46 x i8] c"Malformed timezone field -- expected 4 octets\00", align 1
@.str.1877 = private unnamed_addr constant [19 x i8] c"Unknown Field Type\00", align 1
@.str.2131 = private unnamed_addr constant [27 x i8] c"Manage User Field: %s (%u)\00", align 1
@.str.2132 = private unnamed_addr constant [36 x i8] c"Malformed field -- expected 1 octet\00", align 1
@.str.2133 = private unnamed_addr constant [37 x i8] c"Malformed field -- expected 2 octets\00", align 1

; Function Attrs: null_pointer_is_valid sspstrong uwtable
define internal void @dissect_r3_cmd_manageuser(ptr noundef %0, i32 noundef %1, i32 noundef %2, ptr noundef %3, ptr noundef %4) #0 {
  %6 = alloca ptr, align 8
  %7 = alloca i32, align 4
  %8 = alloca i32, align 4
  %9 = alloca ptr, align 8
  %10 = alloca ptr, align 8
  %11 = alloca i8, align 1
  %12 = alloca ptr, align 8
  %13 = alloca i32, align 4
  %14 = alloca i32, align 4
  %15 = alloca i32, align 4
  %16 = alloca i32, align 4
  %17 = alloca ptr, align 8
  %18 = alloca ptr, align 8
  %19 = alloca ptr, align 8
  %20 = alloca ptr, align 8
  %21 = alloca i32, align 4
  store ptr %0, ptr %6, align 8
  store i32 %1, ptr %7, align 4
  store i32 %2, ptr %8, align 4
  store ptr %3, ptr %9, align 8
  store ptr %4, ptr %10, align 8
  call void @llvm.lifetime.start.p0(i64 1, ptr %11) #5
  %22 = load ptr, ptr %6, align 8
  %23 = load i32, ptr %7, align 4
  %24 = add i32 %23, 0
  %25 = call zeroext i8 @tvb_get_uint8(ptr noundef %22, i32 noundef %24)
  store i8 %25, ptr %11, align 1
  call void @llvm.lifetime.start.p0(i64 8, ptr %12) #5
  %26 = load ptr, ptr %6, align 8
  %27 = load i32, ptr %7, align 4
  %28 = add i32 %27, 2
  %29 = load i8, ptr %11, align 1
  %30 = zext i8 %29 to i32
  %31 = sub i32 %30, 2
  %32 = call ptr @tvb_new_subset_length(ptr noundef %26, i32 noundef %28, i32 noundef %31)
  store ptr %32, ptr %12, align 8
  call void @llvm.lifetime.start.p0(i64 4, ptr %13) #5
  store i32 0, ptr %13, align 4
  %33 = load ptr, ptr %10, align 8
  %34 = load i32, ptr @hf_r3_commandlength, align 4
  %35 = load ptr, ptr %6, align 8
  %36 = load i32, ptr %7, align 4
  %37 = add i32 %36, 0
  %38 = call ptr @proto_tree_add_item(ptr noundef %33, i32 noundef %34, ptr noundef %35, i32 noundef %37, i32 noundef 1, i32 noundef -2147483648)
  %39 = load ptr, ptr %10, align 8
  %40 = load i32, ptr @hf_r3_command, align 4
  %41 = load ptr, ptr %6, align 8
  %42 = load i32, ptr %7, align 4
  %43 = add i32 %42, 1
  %44 = call ptr @proto_tree_add_item(ptr noundef %39, i32 noundef %40, ptr noundef %41, i32 noundef %43, i32 noundef 1, i32 noundef -2147483648)
  br label %45

45:                                               ; preds = %231, %5
  %46 = load i32, ptr %13, align 4
  %47 = load ptr, ptr %12, align 8
  %48 = call i32 @tvb_reported_length(ptr noundef %47)
  %49 = icmp ult i32 %46, %48
  br i1 %49, label %50, label %235

50:                                               ; preds = %45
  call void @llvm.lifetime.start.p0(i64 4, ptr %14) #5
  %51 = load ptr, ptr %12, align 8
  %52 = load i32, ptr %13, align 4
  %53 = add i32 %52, 0
  %54 = call zeroext i8 @tvb_get_uint8(ptr noundef %51, i32 noundef %53)
  %55 = zext i8 %54 to i32
  store i32 %55, ptr %14, align 4
  call void @llvm.lifetime.start.p0(i64 4, ptr %15) #5
  %56 = load ptr, ptr %12, align 8
  %57 = load i32, ptr %13, align 4
  %58 = add i32 %57, 1
  %59 = call zeroext i8 @tvb_get_uint8(ptr noundef %56, i32 noundef %58)
  %60 = zext i8 %59 to i32
  store i32 %60, ptr %15, align 4
  call void @llvm.lifetime.start.p0(i64 4, ptr %16) #5
  %61 = load i32, ptr %14, align 4
  %62 = sub i32 %61, 2
  store i32 %62, ptr %16, align 4
  call void @llvm.lifetime.start.p0(i64 8, ptr %17) #5
  store ptr null, ptr %17, align 8
  call void @llvm.lifetime.start.p0(i64 8, ptr %18) #5
  store ptr null, ptr %18, align 8
  %63 = load ptr, ptr %10, align 8
  %64 = icmp ne ptr %63, null
  br i1 %64, label %65, label %91

65:                                               ; preds = %50
  call void @llvm.lifetime.start.p0(i64 8, ptr %19) #5
  %66 = load i32, ptr %15, align 4
  %67 = call ptr @val_to_str_ext_const(i32 noundef %66, ptr noundef @r3_adduserparamtypenames_ext, ptr noundef @.str.1866)
  store ptr %67, ptr %19, align 8
  %68 = load ptr, ptr %10, align 8
  %69 = load i32, ptr @hf_r3_adduserparamtype, align 4
  %70 = load ptr, ptr %12, align 8
  %71 = load i32, ptr %13, align 4
  %72 = add i32 %71, 0
  %73 = load i32, ptr %14, align 4
  %74 = load ptr, ptr %19, align 8
  %75 = load i32, ptr %15, align 4
  %76 = call ptr (ptr, i32, ptr, i32, i32, ptr, ...) @proto_tree_add_none_format(ptr noundef %68, i32 noundef %69, ptr noundef %70, i32 noundef %72, i32 noundef %73, ptr noundef @.str.2131, ptr noundef %74, i32 noundef %75)
  %77 = load i32, ptr @ett_r3manageuser, align 4
  %78 = call ptr @proto_item_add_subtree(ptr noundef %76, i32 noundef %77)
  store ptr %78, ptr %17, align 8
  %79 = load ptr, ptr %17, align 8
  %80 = load i32, ptr @hf_r3_adduserparamtypelength, align 4
  %81 = load ptr, ptr %12, align 8
  %82 = load i32, ptr %13, align 4
  %83 = add i32 %82, 0
  %84 = call ptr @proto_tree_add_item(ptr noundef %79, i32 noundef %80, ptr noundef %81, i32 noundef %83, i32 noundef 1, i32 noundef -2147483648)
  store ptr %84, ptr %18, align 8
  %85 = load ptr, ptr %17, align 8
  %86 = load i32, ptr @hf_r3_adduserparamtypetype, align 4
  %87 = load ptr, ptr %12, align 8
  %88 = load i32, ptr %13, align 4
  %89 = add i32 %88, 1
  %90 = call ptr @proto_tree_add_item(ptr noundef %85, i32 noundef %86, ptr noundef %87, i32 noundef %89, i32 noundef 1, i32 noundef -2147483648)
  call void @llvm.lifetime.end.p0(i64 8, ptr %19) #5
  br label %91

91:                                               ; preds = %65, %50
  %92 = load i32, ptr %14, align 4
  %93 = icmp ult i32 %92, 2
  br i1 %93, label %94, label %98

94:                                               ; preds = %91
  store i32 0, ptr %16, align 4
  %95 = load ptr, ptr %9, align 8
  %96 = load ptr, ptr %18, align 8
  %97 = call ptr (ptr, ptr, ptr, ptr, ...) @expert_add_info_format(ptr noundef %95, ptr noundef %96, ptr noundef @ei_r3_malformed_length, ptr noundef @.str.1868)
  br label %98

98:                                               ; preds = %94, %91
  %99 = load i32, ptr %13, align 4
  %100 = add i32 %99, 2
  store i32 %100, ptr %13, align 4
  %101 = load i32, ptr %15, align 4
  switch i32 %101, label %224 [
    i32 0, label %102
    i32 2, label %102
    i32 3, label %102
    i32 4, label %102
    i32 5, label %102
    i32 7, label %102
    i32 9, label %102
    i32 12, label %102
    i32 13, label %102
    i32 1, label %121
    i32 6, label %140
    i32 8, label %140
    i32 11, label %150
    i32 10, label %205
  ]

102:                                              ; preds = %98, %98, %98, %98, %98, %98, %98, %98, %98
  %103 = load i32, ptr %16, align 4
  %104 = icmp ne i32 %103, 1
  br i1 %104, label %105, label %110

105:                                              ; preds = %102
  %106 = load ptr, ptr %9, align 8
  %107 = load ptr, ptr %17, align 8
  %108 = call ptr @proto_tree_get_parent(ptr noundef %107)
  %109 = call ptr (ptr, ptr, ptr, ptr, ...) @expert_add_info_format(ptr noundef %106, ptr noundef %108, ptr noundef @ei_r3_malformed_length, ptr noundef @.str.2132)
  br label %120

110:                                              ; preds = %102
  %111 = load ptr, ptr %17, align 8
  %112 = load i32, ptr %15, align 4
  %113 = zext i32 %112 to i64
  %114 = getelementptr [14 x i32], ptr @hf_r3_adduserparamtypearray, i64 0, i64 %113
  %115 = load i32, ptr %114, align 4
  %116 = load ptr, ptr %12, align 8
  %117 = load i32, ptr %13, align 4
  %118 = load i32, ptr %16, align 4
  %119 = call ptr @proto_tree_add_item(ptr noundef %111, i32 noundef %115, ptr noundef %116, i32 noundef %117, i32 noundef %118, i32 noundef -2147483648)
  br label %120

120:                                              ; preds = %110, %105
  br label %231

121:                                              ; preds = %98
  %122 = load i32, ptr %16, align 4
  %123 = icmp ne i32 %122, 2
  br i1 %123, label %124, label %129

124:                                              ; preds = %121
  %125 = load ptr, ptr %9, align 8
  %126 = load ptr, ptr %17, align 8
  %127 = call ptr @proto_tree_get_parent(ptr noundef %126)
  %128 = call ptr (ptr, ptr, ptr, ptr, ...) @expert_add_info_format(ptr noundef %125, ptr noundef %127, ptr noundef @ei_r3_malformed_length, ptr noundef @.str.2133)
  br label %139

129:                                              ; preds = %121
  %130 = load ptr, ptr %17, align 8
  %131 = load i32, ptr %15, align 4
  %132 = zext i32 %131 to i64
  %133 = getelementptr [14 x i32], ptr @hf_r3_adduserparamtypearray, i64 0, i64 %132
  %134 = load i32, ptr %133, align 4
  %135 = load ptr, ptr %12, align 8
  %136 = load i32, ptr %13, align 4
  %137 = load i32, ptr %16, align 4
  %138 = call ptr @proto_tree_add_item(ptr noundef %130, i32 noundef %134, ptr noundef %135, i32 noundef %136, i32 noundef %137, i32 noundef -2147483648)
  br label %139

139:                                              ; preds = %129, %124
  br label %231

140:                                              ; preds = %98, %98
  %141 = load ptr, ptr %17, align 8
  %142 = load i32, ptr %15, align 4
  %143 = zext i32 %142 to i64
  %144 = getelementptr [14 x i32], ptr @hf_r3_adduserparamtypearray, i64 0, i64 %143
  %145 = load i32, ptr %144, align 4
  %146 = load ptr, ptr %12, align 8
  %147 = load i32, ptr %13, align 4
  %148 = load i32, ptr %16, align 4
  %149 = call ptr @proto_tree_add_item(ptr noundef %141, i32 noundef %145, ptr noundef %146, i32 noundef %147, i32 noundef %148, i32 noundef 0)
  br label %231

150:                                              ; preds = %98
  %151 = load i32, ptr %16, align 4
  %152 = icmp ne i32 %151, 3
  br i1 %152, label %153, label %158

153:                                              ; preds = %150
  %154 = load ptr, ptr %9, align 8
  %155 = load ptr, ptr %17, align 8
  %156 = call ptr @proto_tree_get_parent(ptr noundef %155)
  %157 = call ptr (ptr, ptr, ptr, ptr, ...) @expert_add_info_format(ptr noundef %154, ptr noundef %156, ptr noundef @ei_r3_malformed_length, ptr noundef @.str.1873)
  br label %204

158:                                              ; preds = %150
  call void @llvm.lifetime.start.p0(i64 8, ptr %20) #5
  %159 = load ptr, ptr %10, align 8
  %160 = icmp ne ptr %159, null
  br i1 %160, label %162, label %161

161:                                              ; preds = %158
  store i32 4, ptr %21, align 4
  br label %201

162:                                              ; preds = %158
  %163 = load ptr, ptr %17, align 8
  %164 = load ptr, ptr %12, align 8
  %165 = load i32, ptr %13, align 4
  %166 = load i32, ptr @ett_r3expireon, align 4
  %167 = load ptr, ptr %12, align 8
  %168 = load i32, ptr %13, align 4
  %169 = add i32 %168, 2
  %170 = call zeroext i8 @tvb_get_uint8(ptr noundef %167, i32 noundef %169)
  %171 = zext i8 %170 to i32
  %172 = load ptr, ptr %12, align 8
  %173 = load i32, ptr %13, align 4
  %174 = add i32 %173, 0
  %175 = call zeroext i8 @tvb_get_uint8(ptr noundef %172, i32 noundef %174)
  %176 = zext i8 %175 to i32
  %177 = load ptr, ptr %12, align 8
  %178 = load i32, ptr %13, align 4
  %179 = add i32 %178, 1
  %180 = call zeroext i8 @tvb_get_uint8(ptr noundef %177, i32 noundef %179)
  %181 = zext i8 %180 to i32
  %182 = call ptr (ptr, ptr, i32, i32, i32, ptr, ptr, ...) @proto_tree_add_subtree_format(ptr noundef %163, ptr noundef %164, i32 noundef %165, i32 noundef 3, i32 noundef %166, ptr noundef null, ptr noundef @.str.1874, i32 noundef %171, i32 noundef %176, i32 noundef %181)
  store ptr %182, ptr %20, align 8
  %183 = load ptr, ptr %20, align 8
  %184 = load i32, ptr @hf_r3_expireon_month, align 4
  %185 = load ptr, ptr %12, align 8
  %186 = load i32, ptr %13, align 4
  %187 = add i32 %186, 0
  %188 = call ptr @proto_tree_add_item(ptr noundef %183, i32 noundef %184, ptr noundef %185, i32 noundef %187, i32 noundef 1, i32 noundef -2147483648)
  %189 = load ptr, ptr %20, align 8
  %190 = load i32, ptr @hf_r3_expireon_day, align 4
  %191 = load ptr, ptr %12, align 8
  %192 = load i32, ptr %13, align 4
  %193 = add i32 %192, 1
  %194 = call ptr @proto_tree_add_item(ptr noundef %189, i32 noundef %190, ptr noundef %191, i32 noundef %193, i32 noundef 1, i32 noundef -2147483648)
  %195 = load ptr, ptr %20, align 8
  %196 = load i32, ptr @hf_r3_expireon_year, align 4
  %197 = load ptr, ptr %12, align 8
  %198 = load i32, ptr %13, align 4
  %199 = add i32 %198, 2
  %200 = call ptr @proto_tree_add_item(ptr noundef %195, i32 noundef %196, ptr noundef %197, i32 noundef %199, i32 noundef 1, i32 noundef -2147483648)
  store i32 0, ptr %21, align 4
  br label %201

201:                                              ; preds = %162, %161
  call void @llvm.lifetime.end.p0(i64 8, ptr %20) #5
  %202 = load i32, ptr %21, align 4
  switch i32 %202, label %236 [
    i32 0, label %203
    i32 4, label %231
  ]

203:                                              ; preds = %201
  br label %204

204:                                              ; preds = %203, %153
  br label %231

205:                                              ; preds = %98
  %206 = load i32, ptr %16, align 4
  %207 = icmp ne i32 %206, 4
  br i1 %207, label %208, label %213

208:                                              ; preds = %205
  %209 = load ptr, ptr %9, align 8
  %210 = load ptr, ptr %17, align 8
  %211 = call ptr @proto_tree_get_parent(ptr noundef %210)
  %212 = call ptr (ptr, ptr, ptr, ptr, ...) @expert_add_info_format(ptr noundef %209, ptr noundef %211, ptr noundef @ei_r3_malformed_length, ptr noundef @.str.1875)
  br label %223

213:                                              ; preds = %205
  %214 = load ptr, ptr %17, align 8
  %215 = load ptr, ptr %12, align 8
  %216 = load i32, ptr %13, align 4
  %217 = load i32, ptr %15, align 4
  %218 = zext i32 %217 to i64
  %219 = getelementptr [14 x i32], ptr @hf_r3_adduserparamtypearray, i64 0, i64 %218
  %220 = load i32, ptr %219, align 4
  %221 = load i32, ptr @ett_r3timezone, align 4
  %222 = call ptr @proto_tree_add_bitmask(ptr noundef %214, ptr noundef %215, i32 noundef %216, i32 noundef %220, i32 noundef %221, ptr noundef @r3_timezonearray, i32 noundef -2147483648)
  br label %223

223:                                              ; preds = %213, %208
  br label %231

224:                                              ; preds = %98
  %225 = load ptr, ptr %17, align 8
  %226 = load i32, ptr @hf_r3_upstreamfielderror, align 4
  %227 = load ptr, ptr %12, align 8
  %228 = load i32, ptr %13, align 4
  %229 = load i32, ptr %16, align 4
  %230 = call ptr (ptr, i32, ptr, i32, i32, ptr, ...) @proto_tree_add_none_format(ptr noundef %225, i32 noundef %226, ptr noundef %227, i32 noundef %228, i32 noundef %229, ptr noundef @.str.1877)
  br label %231

231:                                              ; preds = %224, %223, %204, %201, %140, %139, %120
  %232 = load i32, ptr %16, align 4
  %233 = load i32, ptr %13, align 4
  %234 = add i32 %233, %232
  store i32 %234, ptr %13, align 4
  call void @llvm.lifetime.end.p0(i64 8, ptr %18) #5
  call void @llvm.lifetime.end.p0(i64 8, ptr %17) #5
  call void @llvm.lifetime.end.p0(i64 4, ptr %16) #5
  call void @llvm.lifetime.end.p0(i64 4, ptr %15) #5
  call void @llvm.lifetime.end.p0(i64 4, ptr %14) #5
  br label %45, !llvm.loop !10

235:                                              ; preds = %45
  call void @llvm.lifetime.end.p0(i64 4, ptr %13) #5
  call void @llvm.lifetime.end.p0(i64 8, ptr %12) #5
  call void @llvm.lifetime.end.p0(i64 1, ptr %11) #5
  ret void

236:                                              ; preds = %201
  unreachable
}