; Function Attrs: null_pointer_is_valid sspstrong uwtable
define internal void @dissect_r3_cmd_manageuser(ptr noundef %0, i32 noundef %1, i32 %2, ptr noundef %3, ptr noundef %4) #0 {
  %6 = tail call zeroext i8 @tvb_get_uint8(ptr noundef %0, i32 noundef %1)
  %7 = add i32 %1, 2
  %8 = zext i8 %6 to i32
  %9 = add nsw i32 %8, -2
  %10 = tail call ptr @tvb_new_subset_length(ptr noundef %0, i32 noundef %7, i32 noundef %9)
  %11 = load i32, ptr @hf_r3_commandlength, align 4
  %12 = tail call ptr @proto_tree_add_item(ptr noundef %4, i32 noundef %11, ptr noundef %0, i32 noundef %1, i32 noundef 1, i32 noundef -2147483648)
  %13 = load i32, ptr @hf_r3_command, align 4
  %14 = add i32 %1, 1
  %15 = tail call ptr @proto_tree_add_item(ptr noundef %4, i32 noundef %13, ptr noundef %0, i32 noundef %14, i32 noundef 1, i32 noundef -2147483648)
  %16 = tail call i32 @tvb_reported_length(ptr noundef %10)
  %.not102 = icmp eq i32 %16, 0
  br i1 %.not102, label %._crit_edge, label %.lr.ph

.lr.ph:                                           ; preds = %5
  %.not = icmp eq ptr %4, null
  br label %17

17:                                               ; preds = %.lr.ph, %94
  %.0101 = phi i32 [ 0, %.lr.ph ], [ %95, %94 ]
  %18 = tail call zeroext i8 @tvb_get_uint8(ptr noundef %10, i32 noundef %.0101)
  %19 = zext i8 %18 to i32
  %20 = add nuw i32 %.0101, 1
  %21 = tail call zeroext i8 @tvb_get_uint8(ptr noundef %10, i32 noundef %20)
  %22 = add nsw i32 %19, -2
  br i1 %.not, label %34, label %23

23:                                               ; preds = %17
  %24 = zext i8 %21 to i32
  %25 = tail call ptr @val_to_str_ext_const(i32 noundef %24, ptr noundef nonnull @r3_adduserparamtypenames_ext, ptr noundef nonnull @.str.1866)
  %26 = load i32, ptr @hf_r3_adduserparamtype, align 4
  %27 = tail call ptr (ptr, i32, ptr, i32, i32, ptr, ...) @proto_tree_add_none_format(ptr noundef nonnull %4, i32 noundef %26, ptr noundef %10, i32 noundef %.0101, i32 noundef %19, ptr noundef nonnull @.str.2131, ptr noundef %25, i32 noundef %24)
  %28 = load i32, ptr @ett_r3manageuser, align 4
  %29 = tail call ptr @proto_item_add_subtree(ptr noundef %27, i32 noundef %28)
  %30 = load i32, ptr @hf_r3_adduserparamtypelength, align 4
  %31 = tail call ptr @proto_tree_add_item(ptr noundef %29, i32 noundef %30, ptr noundef %10, i32 noundef %.0101, i32 noundef 1, i32 noundef -2147483648)
  %32 = load i32, ptr @hf_r3_adduserparamtypetype, align 4
  %33 = tail call ptr @proto_tree_add_item(ptr noundef %29, i32 noundef %32, ptr noundef %10, i32 noundef %20, i32 noundef 1, i32 noundef -2147483648)
  br label %34

34:                                               ; preds = %23, %17
  %.094 = phi ptr [ %29, %23 ], [ null, %17 ]
  %.093 = phi ptr [ %31, %23 ], [ null, %17 ]
  %35 = icmp ult i8 %18, 2
  br i1 %35, label %36, label %38

36:                                               ; preds = %34
  %37 = tail call ptr (ptr, ptr, ptr, ptr, ...) @expert_add_info_format(ptr noundef %3, ptr noundef %.093, ptr noundef nonnull @ei_r3_malformed_length, ptr noundef nonnull @.str.1868)
  br label %38

38:                                               ; preds = %36, %34
  %.092 = phi i32 [ 0, %36 ], [ %22, %34 ]
  %39 = add i32 %.0101, 2
  switch i8 %21, label %91 [
    i8 0, label %40
    i8 2, label %40
    i8 3, label %40
    i8 4, label %40
    i8 5, label %40
    i8 7, label %40
    i8 9, label %40
    i8 12, label %40
    i8 13, label %40
    i8 1, label %49
    i8 6, label %56
    i8 8, label %56
    i8 11, label %61
    i8 10, label %83
  ]

40:                                               ; preds = %38, %38, %38, %38, %38, %38, %38, %38, %38
  %.not100 = icmp eq i32 %.092, 1
  br i1 %.not100, label %44, label %41

41:                                               ; preds = %40
  %42 = tail call ptr @proto_tree_get_parent(ptr noundef %.094)
  %43 = tail call ptr (ptr, ptr, ptr, ptr, ...) @expert_add_info_format(ptr noundef %3, ptr noundef %42, ptr noundef nonnull @ei_r3_malformed_length, ptr noundef nonnull @.str.2132)
  br label %94

44:                                               ; preds = %40
  %45 = zext nneg i8 %21 to i64
  %46 = getelementptr [14 x i32], ptr @hf_r3_adduserparamtypearray, i64 0, i64 %45
  %47 = load i32, ptr %46, align 4
  %48 = tail call ptr @proto_tree_add_item(ptr noundef %.094, i32 noundef %47, ptr noundef %10, i32 noundef %39, i32 noundef 1, i32 noundef -2147483648)
  br label %94

49:                                               ; preds = %38
  %.not99 = icmp eq i32 %.092, 2
  br i1 %.not99, label %53, label %50

50:                                               ; preds = %49
  %51 = tail call ptr @proto_tree_get_parent(ptr noundef %.094)
  %52 = tail call ptr (ptr, ptr, ptr, ptr, ...) @expert_add_info_format(ptr noundef %3, ptr noundef %51, ptr noundef nonnull @ei_r3_malformed_length, ptr noundef nonnull @.str.2133)
  br label %94

53:                                               ; preds = %49
  %54 = load i32, ptr getelementptr inbounds nuw (i8, ptr @hf_r3_adduserparamtypearray, i64 4), align 4
  %55 = tail call ptr @proto_tree_add_item(ptr noundef %.094, i32 noundef %54, ptr noundef %10, i32 noundef %39, i32 noundef 2, i32 noundef -2147483648)
  br label %94

56:                                               ; preds = %38, %38
  %57 = zext nneg i8 %21 to i64
  %58 = getelementptr [14 x i32], ptr @hf_r3_adduserparamtypearray, i64 0, i64 %57
  %59 = load i32, ptr %58, align 4
  %60 = tail call ptr @proto_tree_add_item(ptr noundef %.094, i32 noundef %59, ptr noundef %10, i32 noundef %39, i32 noundef %.092, i32 noundef 0)
  br label %94

61:                                               ; preds = %38
  %.not98 = icmp eq i32 %.092, 3
  br i1 %.not98, label %65, label %62

62:                                               ; preds = %61
  %63 = tail call ptr @proto_tree_get_parent(ptr noundef %.094)
  %64 = tail call ptr (ptr, ptr, ptr, ptr, ...) @expert_add_info_format(ptr noundef %3, ptr noundef %63, ptr noundef nonnull @ei_r3_malformed_length, ptr noundef nonnull @.str.1873)
  br label %94

65:                                               ; preds = %61
  br i1 %.not, label %94, label %66

66:                                               ; preds = %65
  %67 = load i32, ptr @ett_r3expireon, align 4
  %68 = add i32 %.0101, 4
  %69 = tail call zeroext i8 @tvb_get_uint8(ptr noundef %10, i32 noundef %68)
  %70 = zext i8 %69 to i32
  %71 = tail call zeroext i8 @tvb_get_uint8(ptr noundef %10, i32 noundef %39)
  %72 = zext i8 %71 to i32
  %73 = add i32 %.0101, 3
  %74 = tail call zeroext i8 @tvb_get_uint8(ptr noundef %10, i32 noundef %73)
  %75 = zext i8 %74 to i32
  %76 = tail call ptr (ptr, ptr, i32, i32, i32, ptr, ptr, ...) @proto_tree_add_subtree_format(ptr noundef %.094, ptr noundef %10, i32 noundef %39, i32 noundef 3, i32 noundef %67, ptr noundef null, ptr noundef nonnull @.str.1874, i32 noundef %70, i32 noundef %72, i32 noundef %75)
  %77 = load i32, ptr @hf_r3_expireon_month, align 4
  %78 = tail call ptr @proto_tree_add_item(ptr noundef %76, i32 noundef %77, ptr noundef %10, i32 noundef %39, i32 noundef 1, i32 noundef -2147483648)
  %79 = load i32, ptr @hf_r3_expireon_day, align 4
  %80 = tail call ptr @proto_tree_add_item(ptr noundef %76, i32 noundef %79, ptr noundef %10, i32 noundef %73, i32 noundef 1, i32 noundef -2147483648)
  %81 = load i32, ptr @hf_r3_expireon_year, align 4
  %82 = tail call ptr @proto_tree_add_item(ptr noundef %76, i32 noundef %81, ptr noundef %10, i32 noundef %68, i32 noundef 1, i32 noundef -2147483648)
  br label %94

83:                                               ; preds = %38
  %.not97 = icmp eq i32 %.092, 4
  br i1 %.not97, label %87, label %84

84:                                               ; preds = %83
  %85 = tail call ptr @proto_tree_get_parent(ptr noundef %.094)
  %86 = tail call ptr (ptr, ptr, ptr, ptr, ...) @expert_add_info_format(ptr noundef %3, ptr noundef %85, ptr noundef nonnull @ei_r3_malformed_length, ptr noundef nonnull @.str.1875)
  br label %94

87:                                               ; preds = %83
  %88 = load i32, ptr getelementptr inbounds nuw (i8, ptr @hf_r3_adduserparamtypearray, i64 40), align 8
  %89 = load i32, ptr @ett_r3timezone, align 4
  %90 = tail call ptr @proto_tree_add_bitmask(ptr noundef %.094, ptr noundef %10, i32 noundef %39, i32 noundef %88, i32 noundef %89, ptr noundef nonnull @r3_timezonearray, i32 noundef -2147483648)
  br label %94

91:                                               ; preds = %38
  %92 = load i32, ptr @hf_r3_upstreamfielderror, align 4
  %93 = tail call ptr (ptr, i32, ptr, i32, i32, ptr, ...) @proto_tree_add_none_format(ptr noundef %.094, i32 noundef %92, ptr noundef %10, i32 noundef %39, i32 noundef %.092, ptr noundef nonnull @.str.1877)
  br label %94

94:                                               ; preds = %66, %65, %84, %87, %62, %50, %53, %41, %44, %91, %56
  %95 = add i32 %.092, %39
  %96 = tail call i32 @tvb_reported_length(ptr noundef %10)
  %97 = icmp ult i32 %95, %96
  br i1 %97, label %17, label %._crit_edge, !llvm.loop !10

._crit_edge:                                      ; preds = %94, %5
  ret void
}